; Function Attrs: mustprogress uwtable
define hidden void @_ZN3opt7context20set_hard_constraintsERK10ref_vectorI4expr11ast_managerE(ptr noundef nonnull align 8 dereferenceable(792) %this, ptr nocapture noundef nonnull readonly align 8 dereferenceable(16) %fmls) unnamed_addr #3 align 2 {
entry:
  %m_calling_on_model = getelementptr inbounds i8, ptr %this, i64 160
  %0 = load i8, ptr %m_calling_on_model, align 8
  %1 = and i8 %0, 1
  %tobool.not = icmp eq i8 %1, 0
  br i1 %tobool.not, label %if.end, label %if.then

if.then:                                          ; preds = %entry
  %m_nodes.i = getelementptr inbounds i8, ptr %fmls, i64 8
  %2 = load ptr, ptr %m_nodes.i, align 8
  %cmp.i.i.i = icmp eq ptr %2, null
  br i1 %cmp.i.i.i, label %if.end5, label %_ZNK15ref_vector_coreI4expr19ref_manager_wrapperIS0_11ast_managerEE3endEv.exit

_ZNK15ref_vector_coreI4expr19ref_manager_wrapperIS0_11ast_managerEE3endEv.exit: ; preds = %if.then
  %arrayidx.i.i.i = getelementptr inbounds i8, ptr %2, i64 -4
  %3 = load i32, ptr %arrayidx.i.i.i, align 4
  %4 = zext i32 %3 to i64
  %add.ptr.i = getelementptr inbounds ptr, ptr %2, i64 %4
  %cmp.not5 = icmp eq i32 %3, 0
  br i1 %cmp.not5, label %if.end5, label %for.body

for.body:                                         ; preds = %_ZNK15ref_vector_coreI4expr19ref_manager_wrapperIS0_11ast_managerEE3endEv.exit, %for.body
  %__begin2.06 = phi ptr [ %incdec.ptr, %for.body ], [ %2, %_ZNK15ref_vector_coreI4expr19ref_manager_wrapperIS0_11ast_managerEE3endEv.exit ]
  %5 = load ptr, ptr %__begin2.06, align 8
  tail call void @_ZN3opt7context19add_hard_constraintEP4expr(ptr noundef nonnull align 8 dereferenceable(792) %this, ptr noundef %5)
  %incdec.ptr = getelementptr inbounds i8, ptr %__begin2.06, i64 8
  %cmp.not = icmp eq ptr %incdec.ptr, %add.ptr.i
  br i1 %cmp.not, label %if.end5, label %for.body

if.end:                                           ; preds = %entry
  %m_scoped_state = getelementptr inbounds i8, ptr %this, i64 440
  %call3 = tail call noundef zeroext i1 @_ZN3opt7context12scoped_state3setERK10ref_vectorI4expr11ast_managerE(ptr noundef nonnull align 8 dereferenceable(152) %m_scoped_state, ptr noundef nonnull align 8 dereferenceable(16) %fmls)
  br i1 %call3, label %if.then4, label %if.end5

if.then4:                                         ; preds = %if.end
  tail call void @_ZN3opt7context11clear_stateEv(ptr noundef nonnull align 8 dereferenceable(792) %this)
  br label %if.end5

if.end5:                                          ; preds = %for.body, %if.then, %_ZNK15ref_vector_coreI4expr19ref_manager_wrapperIS0_11ast_managerEE3endEv.exit, %if.then4, %if.end
  ret void
}